; Function Attrs: mustprogress nofree norecurse nosync nounwind willreturn memory(argmem: read) uwtable
define dso_local { <2 x float>, <2 x float> } @_ZNK16btCylinderShapeZ37localGetSupportingVertexWithoutMarginERK9btVector3(ptr nocapture noundef nonnull readonly align 8 dereferenceable(76) %this, ptr nocapture noundef nonnull readonly align 4 dereferenceable(16) %vec) unnamed_addr #4 align 2 {
entry:
  %m_implicitShapeDimensions.i = getelementptr inbounds i8, ptr %this, i64 48
  %0 = load float, ptr %m_implicitShapeDimensions.i, align 8
  %arrayidx2.i = getelementptr inbounds i8, ptr %this, i64 56
  %1 = load float, ptr %arrayidx2.i, align 8
  %2 = load <2 x float>, ptr %vec, align 4
  %3 = fmul <2 x float> %2, %2
  %mul11.i = extractelement <2 x float> %3, i64 1
  %4 = extractelement <2 x float> %2, i64 0
  %5 = tail call float @llvm.fmuladd.f32(float %4, float %4, float %mul11.i)
  %sqrt.i = tail call float @llvm.sqrt.f32(float %5)
  %cmp.i = fcmp une float %sqrt.i, 0.000000e+00
  br i1 %cmp.i, label %if.then.i, label %if.else.i

if.then.i:                                        ; preds = %entry
  %div.i = fdiv float %0, %sqrt.i
  %arrayidx18.i = getelementptr inbounds i8, ptr %vec, i64 8
  %6 = load float, ptr %arrayidx18.i, align 4
  %cmp19.i = fcmp olt float %6, 0.000000e+00
  %fneg.i = fneg float %1
  %cond.i = select i1 %cmp19.i, float %fneg.i, float %1
  %retval.sroa.5.8.vec.insert.i = insertelement <2 x float> <float poison, float undef>, float %cond.i, i64 0
  %7 = insertelement <2 x float> poison, float %div.i, i64 0
  %8 = shufflevector <2 x float> %7, <2 x float> poison, <2 x i32> zeroinitializer
  %9 = fmul <2 x float> %2, %8
  br label %_Z21CylinderLocalSupportZRK9btVector3S1_.exit

if.else.i:                                        ; preds = %entry
  %arrayidx30.i = getelementptr inbounds i8, ptr %vec, i64 8
  %10 = load float, ptr %arrayidx30.i, align 4
  %cmp32.i = fcmp olt float %10, 0.000000e+00
  %fneg34.i = fneg float %1
  %cond37.i = select i1 %cmp32.i, float %fneg34.i, float %1
  %retval.sroa.5.8.vec.insert22.i = insertelement <2 x float> <float poison, float undef>, float %cond37.i, i64 0
  %retval.sroa.0.4.vec.insert19.i = insertelement <2 x float> <float poison, float 0.000000e+00>, float %0, i64 0
  br label %_Z21CylinderLocalSupportZRK9btVector3S1_.exit

_Z21CylinderLocalSupportZRK9btVector3S1_.exit:    ; preds = %if.then.i, %if.else.i
  %retval.sroa.5.0.i = phi <2 x float> [ %retval.sroa.5.8.vec.insert.i, %if.then.i ], [ %retval.sroa.5.8.vec.insert22.i, %if.else.i ]
  %retval.sroa.0.0.i = phi <2 x float> [ %9, %if.then.i ], [ %retval.sroa.0.4.vec.insert19.i, %if.else.i ]
  %.fca.0.insert.i = insertvalue { <2 x float>, <2 x float> } poison, <2 x float> %retval.sroa.0.0.i, 0
  %.fca.1.insert.i = insertvalue { <2 x float>, <2 x float> } %.fca.0.insert.i, <2 x float> %retval.sroa.5.0.i, 1
  ret { <2 x float>, <2 x float> } %.fca.1.insert.i
}